; Function Attrs: nofree norecurse nosync nounwind memory(argmem: readwrite) uwtable
define void @Kit_TruthCofactor1(ptr noundef captures(none) %0, i32 noundef %1, i32 noundef %2) local_unnamed_addr #0 {
  %4 = icmp slt i32 %1, 6
  %5 = add nsw i32 %1, -5
  %6 = shl nuw i32 1, %5
  %7 = select i1 %4, i32 1, i32 %6
  switch i32 %2, label %38 [
    i32 0, label %.preheader65
    i32 1, label %.preheader67
    i32 2, label %.preheader69
    i32 3, label %.preheader71
    i32 4, label %.preheader73
  ]

.preheader73:                                     ; preds = %3
  %8 = icmp sgt i32 %7, 0
  br i1 %8, label %.lr.ph.preheader, label %.loopexit

.lr.ph.preheader:                                 ; preds = %.preheader73
  %wide.trip.count = zext nneg i32 %7 to i64
  br label %.lr.ph

.preheader71:                                     ; preds = %3
  %9 = icmp sgt i32 %7, 0
  br i1 %9, label %.lr.ph77.preheader, label %.loopexit

.lr.ph77.preheader:                               ; preds = %.preheader71
  %wide.trip.count98 = zext nneg i32 %7 to i64
  br label %.lr.ph77

.preheader69:                                     ; preds = %3
  %10 = icmp sgt i32 %7, 0
  br i1 %10, label %.lr.ph79.preheader, label %.loopexit

.lr.ph79.preheader:                               ; preds = %.preheader69
  %wide.trip.count103 = zext nneg i32 %7 to i64
  br label %.lr.ph79

.preheader67:                                     ; preds = %3
  %11 = icmp sgt i32 %7, 0
  br i1 %11, label %.lr.ph81.preheader, label %.loopexit

.lr.ph81.preheader:                               ; preds = %.preheader67
  %wide.trip.count108 = zext nneg i32 %7 to i64
  br label %.lr.ph81

.preheader65:                                     ; preds = %3
  %12 = icmp sgt i32 %7, 0
  br i1 %12, label %.lr.ph83.preheader, label %.loopexit

.lr.ph83.preheader:                               ; preds = %.preheader65
  %wide.trip.count113 = zext nneg i32 %7 to i64
  br label %.lr.ph83

.lr.ph83:                                         ; preds = %.lr.ph83.preheader, %.lr.ph83
  %indvars.iv110 = phi i64 [ 0, %.lr.ph83.preheader ], [ %indvars.iv.next111, %.lr.ph83 ]
  %13 = getelementptr inbounds nuw i32, ptr %0, i64 %indvars.iv110
  %14 = load i32, ptr %13, align 4, !tbaa !3
  %15 = and i32 %14, -1431655766
  %16 = lshr exact i32 %15, 1
  %17 = or disjoint i32 %16, %15
  store i32 %17, ptr %13, align 4, !tbaa !3
  %indvars.iv.next111 = add nuw nsw i64 %indvars.iv110, 1
  %exitcond114.not = icmp eq i64 %indvars.iv.next111, %wide.trip.count113
  br i1 %exitcond114.not, label %.loopexit, label %.lr.ph83, !llvm.loop !55

.lr.ph81:                                         ; preds = %.lr.ph81.preheader, %.lr.ph81
  %indvars.iv105 = phi i64 [ 0, %.lr.ph81.preheader ], [ %indvars.iv.next106, %.lr.ph81 ]
  %18 = getelementptr inbounds nuw i32, ptr %0, i64 %indvars.iv105
  %19 = load i32, ptr %18, align 4, !tbaa !3
  %20 = and i32 %19, -858993460
  %21 = lshr exact i32 %20, 2
  %22 = or disjoint i32 %21, %20
  store i32 %22, ptr %18, align 4, !tbaa !3
  %indvars.iv.next106 = add nuw nsw i64 %indvars.iv105, 1
  %exitcond109.not = icmp eq i64 %indvars.iv.next106, %wide.trip.count108
  br i1 %exitcond109.not, label %.loopexit, label %.lr.ph81, !llvm.loop !56

.lr.ph79:                                         ; preds = %.lr.ph79.preheader, %.lr.ph79
  %indvars.iv100 = phi i64 [ 0, %.lr.ph79.preheader ], [ %indvars.iv.next101, %.lr.ph79 ]
  %23 = getelementptr inbounds nuw i32, ptr %0, i64 %indvars.iv100
  %24 = load i32, ptr %23, align 4, !tbaa !3
  %25 = and i32 %24, -252645136
  %26 = lshr exact i32 %25, 4
  %27 = or disjoint i32 %26, %25
  store i32 %27, ptr %23, align 4, !tbaa !3
  %indvars.iv.next101 = add nuw nsw i64 %indvars.iv100, 1
  %exitcond104.not = icmp eq i64 %indvars.iv.next101, %wide.trip.count103
  br i1 %exitcond104.not, label %.loopexit, label %.lr.ph79, !llvm.loop !57

.lr.ph77:                                         ; preds = %.lr.ph77.preheader, %.lr.ph77
  %indvars.iv95 = phi i64 [ 0, %.lr.ph77.preheader ], [ %indvars.iv.next96, %.lr.ph77 ]
  %28 = getelementptr inbounds nuw i32, ptr %0, i64 %indvars.iv95
  %29 = load i32, ptr %28, align 4, !tbaa !3
  %30 = and i32 %29, -16711936
  %31 = lshr exact i32 %30, 8
  %32 = or disjoint i32 %31, %30
  store i32 %32, ptr %28, align 4, !tbaa !3
  %indvars.iv.next96 = add nuw nsw i64 %indvars.iv95, 1
  %exitcond99.not = icmp eq i64 %indvars.iv.next96, %wide.trip.count98
  br i1 %exitcond99.not, label %.loopexit, label %.lr.ph77, !llvm.loop !58

.lr.ph:                                           ; preds = %.lr.ph.preheader, %.lr.ph
  %indvars.iv = phi i64 [ 0, %.lr.ph.preheader ], [ %indvars.iv.next, %.lr.ph ]
  %33 = getelementptr inbounds nuw i32, ptr %0, i64 %indvars.iv
  %34 = load i32, ptr %33, align 4, !tbaa !3
  %35 = and i32 %34, -65536
  %36 = lshr i32 %34, 16
  %37 = or disjoint i32 %35, %36
  store i32 %37, ptr %33, align 4, !tbaa !3
  %indvars.iv.next = add nuw nsw i64 %indvars.iv, 1
  %exitcond.not = icmp eq i64 %indvars.iv.next, %wide.trip.count
  br i1 %exitcond.not, label %.loopexit, label %.lr.ph, !llvm.loop !59

38:                                               ; preds = %3
  %39 = add nsw i32 %2, -5
  %40 = shl nuw i32 1, %39
  %41 = icmp sgt i32 %7, 0
  br i1 %41, label %.preheader.lr.ph, label %.loopexit

.preheader.lr.ph:                                 ; preds = %38
  %.not = icmp eq i32 %39, 31
  %42 = shl i32 2, %39
  %43 = sext i32 %42 to i64
  br i1 %.not, label %.loopexit, label %.preheader.us.preheader

.preheader.us.preheader:                          ; preds = %.preheader.lr.ph
  %44 = sext i32 %40 to i64
  %smax = tail call i32 @llvm.smax.i32(i32 %40, i32 1)
  %wide.trip.count118 = zext nneg i32 %smax to i64
  br label %.preheader.us

.preheader.us:                                    ; preds = %.preheader.us.preheader, %._crit_edge.us
  %.087.us = phi ptr [ %48, %._crit_edge.us ], [ %0, %.preheader.us.preheader ]
  %.06186.us = phi i32 [ %49, %._crit_edge.us ], [ 0, %.preheader.us.preheader ]
  %invariant.gep = getelementptr i32, ptr %.087.us, i64 %44
  br label %45

45:                                               ; preds = %.preheader.us, %45
  %indvars.iv115 = phi i64 [ 0, %.preheader.us ], [ %indvars.iv.next116, %45 ]
  %gep = getelementptr i32, ptr %invariant.gep, i64 %indvars.iv115
  %46 = load i32, ptr %gep, align 4, !tbaa !3
  %47 = getelementptr inbounds nuw i32, ptr %.087.us, i64 %indvars.iv115
  store i32 %46, ptr %47, align 4, !tbaa !3
  %indvars.iv.next116 = add nuw nsw i64 %indvars.iv115, 1
  %exitcond119.not = icmp eq i64 %indvars.iv.next116, %wide.trip.count118
  br i1 %exitcond119.not, label %._crit_edge.us, label %45, !llvm.loop !60

._crit_edge.us:                                   ; preds = %45
  %48 = getelementptr inbounds i32, ptr %.087.us, i64 %43
  %49 = add nsw i32 %.06186.us, %42
  %50 = icmp slt i32 %49, %7
  br i1 %50, label %.preheader.us, label %.loopexit, !llvm.loop !61

.loopexit:                                        ; preds = %.lr.ph, %.lr.ph77, %.lr.ph79, %.lr.ph81, %.lr.ph83, %._crit_edge.us, %.preheader.lr.ph, %.preheader73, %.preheader71, %.preheader69, %.preheader67, %.preheader65, %38
  ret void
}